; Function Attrs: mustprogress nofree norecurse nosync nounwind willreturn memory(argmem: readwrite) uwtable
define hidden range(i32 -1, 1) i32 @nghttp2_http_on_data_chunk(ptr noundef captures(none) %0, i64 noundef %1) local_unnamed_addr #4 {
  %3 = getelementptr inbounds nuw i8, ptr %0, i64 24
  %4 = load i64, ptr %3, align 8, !tbaa !60
  %5 = add nsw i64 %4, %1
  store i64 %5, ptr %3, align 8, !tbaa !60
  %6 = getelementptr inbounds nuw i8, ptr %0, i64 112
  %7 = load i32, ptr %6, align 8, !tbaa !18
  %8 = and i32 %7, 16384
  %.not = icmp eq i32 %8, 0
  br i1 %.not, label %9, label %13

9:                                                ; preds = %2
  %10 = getelementptr inbounds nuw i8, ptr %0, i64 16
  %11 = load i64, ptr %10, align 8, !tbaa !56
  %.not7 = icmp ne i64 %11, -1
  %12 = icmp sgt i64 %5, %11
  %or.cond = select i1 %.not7, i1 %12, i1 false
  %spec.select = sext i1 %or.cond to i32
  br label %13

13:                                               ; preds = %9, %2
  %.0 = phi i32 [ -1, %2 ], [ %spec.select, %9 ]
  ret i32 %.0
}